Certificate Request:
    Data:
        Version: 1 (0x0)
        Subject: CN = localhost
        Subject Public Key Info:
            Public Key Algorithm: rsaEncryption
                Public-Key: (2048 bit)
                Modulus:
                    00:93:85:c2:b3:dc:c3:5a:85:7d:1d:db:76:35:98:
                    51:9a:24:0e:28:9b:75:6b:e4:10:54:22:c6:77:63:
                    b5:25:b3:8f:96:ef:ea:41:80:09:f2:63:9c:d8:e6:
                    42:7c:44:da:eb:0c:eb:4b:9f:10:fe:e4:82:74:d4:
                    3a:b1:89:60:38:bd:c4:2d:9d:1a:8d:5e:cb:d6:c9:
                    4b:f5:c5:e7:5a:07:e0:52:e9:4b:c4:d6:11:a5:7d:
                    18:2f:bc:4a:1b:0d:3c:68:87:af:03:d7:dd:3d:4a:
                    21:e0:d2:62:16:69:66:53:5c:7e:28:c7:55:b8:cd:
                    9c:43:ea:35:d9:0a:00:2b:ea:42:dc:31:ae:07:74:
                    b8:c5:20:d3:38:f6:56:1b:c7:7b:ef:c7:38:4c:ea:
                    f0:8a:4c:b7:89:92:ed:a7:58:5e:74:0e:9f:c3:0b:
                    9b:4f:93:83:19:f8:c5:33:01:a1:6a:48:bb:3a:a2:
                    0e:2a:fc:75:5a:f3:b4:e4:24:fa:93:fa:ca:28:69:
                    c5:5c:be:44:b8:c7:d8:50:a9:d2:af:b0:f7:4e:6b:
                    c8:40:a4:27:cd:03:a3:6a:0a:83:54:ab:25:1b:70:
                    52:19:d4:f9:86:b9:b5:4d:93:de:e4:8b:47:cc:6d:
                    a0:cb:7f:46:68:14:86:2b:cb:48:38:74:f3:98:54:
                    88:bf
                Exponent: 65537 (0x10001)
        Attributes:
            (none)
            Requested Extensions:
    Signature Algorithm: sha256WithRSAEncryption
    Signature Value:
        14:fa:78:f5:7f:27:24:7f:bb:a6:0f:ce:b6:bd:e0:6c:20:77:
        31:da:78:ce:69:a7:3d:6c:ed:68:3d:6d:48:04:a9:ef:60:d6:
        b3:c0:67:05:0c:59:09:7e:8e:c9:6b:5b:9f:fc:2c:2a:72:d8:
        9b:9d:48:08:37:7b:e4:10:fa:28:ab:d3:65:b4:a8:45:27:4f:
        bf:8e:02:55:57:b5:ad:b9:74:56:e2:41:23:dc:84:9b:71:74:
        4d:4a:b4:9e:1b:10:23:af:82:24:20:ae:d6:b6:df:56:ee:87:
        f5:d7:88:c8:6b:b6:fa:9f:98:f6:c6:43:ca:9c:03:e7:61:c5:
        46:fc:d4:5c:95:5d:c8:57:70:7b:10:3e:32:40:b9:23:94:12:
        fc:aa:b4:2c:4a:ed:15:20:2f:60:61:9b:39:56:d5:b6:d6:cc:
        1c:bd:63:f4:ad:e0:6a:81:d9:be:d3:e0:eb:c7:88:11:5f:b4:
        69:51:40:9b:95:69:74:83:28:af:d5:51:21:4f:51:45:1a:8a:
        3f:b7:86:6d:26:30:11:b1:9d:6f:16:65:ea:8d:28:7e:2d:b1:
        c1:f4:88:51:f7:8f:68:62:ad:8b:85:de:4f:e8:67:64:55:4d:
        07:12:3b:49:48:dc:12:6c:51:23:86:49:6b:74:39:cd:c5:f7:
        cd:71:4c:34
-----BEGIN CERTIFICATE REQUEST-----
MIICWTCCAUECAQAwFDESMBAGA1UEAwwJbG9jYWxob3N0MIIBIjANBgkqhkiG9w0B
AQEFAAOCAQ8AMIIBCgKCAQEAk4XCs9zDWoV9Hdt2NZhRmiQOKJt1a+QQVCLGd2O1
JbOPlu/qQYAJ8mOc2OZCfETa6wzrS58Q/uSCdNQ6sYlgOL3ELZ0ajV7L1slL9cXn
WgfgUulLxNYRpX0YL7xKGw08aIevA9fdPUoh4NJiFmlmU1x+KMdVuM2cQ+o12QoA
K+pC3DGuB3S4xSDTOPZWG8d778c4TOrwiky3iZLtp1hedA6fwwubT5ODGfjFMwGh
aki7OqIOKvx1WvO05CT6k/rKKGnFXL5EuMfYUKnSr7D3TmvIQKQnzQOjagqDVKsl
G3BSGdT5hrm1TZPe5ItHzG2gy39GaBSGK8tIOHTzmFSIvwIDAQABoAAwDQYJKoZI
hvcNAQELBQADggEBABT6ePV/JyR/u6YPzra94GwgdzHaeM5ppz1s7Wg9bUgEqe9g
1rPAZwUMWQl+jslrW5/8LCpy2JudSAg3e+QQ+iir02W0qEUnT7+OAlVXta25dFbi
QSPchJtxdE1KtJ4bECOvgiQgrta231buh/XXiMhrtvqfmPbGQ8qcA+dhxUb81FyV
XchXcHsQPjJAuSOUEvyqtCxK7RUgL2BhmzlW1bbWzBy9Y/St4GqB2b7T4OvHiBFf
tGlRQJuVaXSDKK/VUSFPUUUaij+3hm0mMBGxnW8WZeqNKH4tscH0iFH3j2hirYuF
3k/oZ2RVTQcSO0lI3BJsUSOGSWt0Oc3F981xTDQ=
-----END CERTIFICATE REQUEST-----
