Certificate:
    Data:
        Version: 1 (0x0)
        Serial Number:
            21:77:f1:b8:f6:61:9c:ef:88:44:2b:80:d5:08:b3:b9:fa:e9:5f:fa
        Signature Algorithm: sha256WithRSAEncryption
        Issuer: CN = localhost
        Validity
            Not Before: May 19 15:47:03 2023 GMT
            Not After : May 18 15:47:03 2024 GMT
        Subject: CN = localhost
        Subject Public Key Info:
            Public Key Algorithm: rsaEncryption
                Public-Key: (2048 bit)
                Modulus:
                    00:93:85:c2:b3:dc:c3:5a:85:7d:1d:db:76:35:98:
                    51:9a:24:0e:28:9b:75:6b:e4:10:54:22:c6:77:63:
                    b5:25:b3:8f:96:ef:ea:41:80:09:f2:63:9c:d8:e6:
                    42:7c:44:da:eb:0c:eb:4b:9f:10:fe:e4:82:74:d4:
                    3a:b1:89:60:38:bd:c4:2d:9d:1a:8d:5e:cb:d6:c9:
                    4b:f5:c5:e7:5a:07:e0:52:e9:4b:c4:d6:11:a5:7d:
                    18:2f:bc:4a:1b:0d:3c:68:87:af:03:d7:dd:3d:4a:
                    21:e0:d2:62:16:69:66:53:5c:7e:28:c7:55:b8:cd:
                    9c:43:ea:35:d9:0a:00:2b:ea:42:dc:31:ae:07:74:
                    b8:c5:20:d3:38:f6:56:1b:c7:7b:ef:c7:38:4c:ea:
                    f0:8a:4c:b7:89:92:ed:a7:58:5e:74:0e:9f:c3:0b:
                    9b:4f:93:83:19:f8:c5:33:01:a1:6a:48:bb:3a:a2:
                    0e:2a:fc:75:5a:f3:b4:e4:24:fa:93:fa:ca:28:69:
                    c5:5c:be:44:b8:c7:d8:50:a9:d2:af:b0:f7:4e:6b:
                    c8:40:a4:27:cd:03:a3:6a:0a:83:54:ab:25:1b:70:
                    52:19:d4:f9:86:b9:b5:4d:93:de:e4:8b:47:cc:6d:
                    a0:cb:7f:46:68:14:86:2b:cb:48:38:74:f3:98:54:
                    88:bf
                Exponent: 65537 (0x10001)
    Signature Algorithm: sha256WithRSAEncryption
    Signature Value:
        98:2b:46:e6:39:59:96:ef:bb:31:77:b5:a3:18:0a:d6:66:6b:
        60:97:66:2e:8d:a1:ee:4f:5f:6f:88:7c:91:a9:a0:58:6d:5d:
        fc:91:8b:a6:95:31:a6:90:38:bd:93:fb:93:10:50:02:50:18:
        d0:0b:e0:38:05:7e:f5:84:1c:fa:f0:e9:60:06:39:48:db:1a:
        ac:94:23:af:a7:14:e7:59:27:57:57:92:10:e5:76:1d:99:29:
        65:a9:33:e3:a2:5d:e9:07:a1:d3:66:77:1a:8c:46:5a:cb:fc:
        cf:ed:88:b5:6b:26:ee:38:a1:c4:3e:ec:41:be:91:74:19:fc:
        47:29:53:f3:8f:29:56:f2:e8:44:ab:a6:b7:a5:96:9a:ee:93:
        b4:fa:4e:7d:d2:e6:80:2f:7e:27:49:b6:c7:c0:94:79:8e:5a:
        7b:12:3d:31:e2:a5:22:f1:10:b0:a2:72:0b:69:86:0b:a7:01:
        e9:60:2c:72:f0:83:c3:c7:38:6e:1c:2a:ad:5b:00:36:78:52:
        79:42:fe:85:be:3b:da:9b:1e:bb:c3:fe:88:95:a7:52:77:20:
        a7:27:f8:20:bf:9e:97:74:af:7d:c5:7d:a9:a9:0b:34:cc:c9:
        11:55:49:f8:49:4b:a9:0e:15:e7:39:bf:d2:c8:62:b2:2d:f6:
        54:9d:68:f5
-----BEGIN CERTIFICATE-----
MIICrzCCAZcCFCF38bj2YZzviEQrgNUIs7n66V/6MA0GCSqGSIb3DQEBCwUAMBQx
EjAQBgNVBAMMCWxvY2FsaG9zdDAeFw0yMzA1MTkxNTQ3MDNaFw0yNDA1MTgxNTQ3
MDNaMBQxEjAQBgNVBAMMCWxvY2FsaG9zdDCCASIwDQYJKoZIhvcNAQEBBQADggEP
ADCCAQoCggEBAJOFwrPcw1qFfR3bdjWYUZokDiibdWvkEFQixndjtSWzj5bv6kGA
CfJjnNjmQnxE2usM60ufEP7kgnTUOrGJYDi9xC2dGo1ey9bJS/XF51oH4FLpS8TW
EaV9GC+8ShsNPGiHrwPX3T1KIeDSYhZpZlNcfijHVbjNnEPqNdkKACvqQtwxrgd0
uMUg0zj2VhvHe+/HOEzq8IpMt4mS7adYXnQOn8MLm0+Tgxn4xTMBoWpIuzqiDir8
dVrztOQk+pP6yihpxVy+RLjH2FCp0q+w905ryECkJ80Do2oKg1SrJRtwUhnU+Ya5
tU2T3uSLR8xtoMt/RmgUhivLSDh085hUiL8CAwEAATANBgkqhkiG9w0BAQsFAAOC
AQEAmCtG5jlZlu+7MXe1oxgK1mZrYJdmLo2h7k9fb4h8kamgWG1d/JGLppUxppA4
vZP7kxBQAlAY0AvgOAV+9YQc+vDpYAY5SNsarJQjr6cU51knV1eSEOV2HZkpZakz
46Jd6Qeh02Z3GoxGWsv8z+2ItWsm7jihxD7sQb6RdBn8RylT848pVvLoRKumt6WW
mu6TtPpOfdLmgC9+J0m2x8CUeY5aexI9MeKlIvEQsKJyC2mGC6cB6WAscvCDw8c4
bhwqrVsANnhSeUL+hb472pseu8P+iJWnUncgpyf4IL+el3SvfcV9qakLNMzJEVVJ
+ElLqQ4V5zm/0shisi32VJ1o9Q==
-----END CERTIFICATE-----
