Certificate Request:
    Data:
        Version: 1 (0x0)
        Subject: CN = localhost
        Subject Public Key Info:
            Public Key Algorithm: rsaEncryption
                Public-Key: (2048 bit)
                Modulus:
                    00:d3:c2:ae:44:96:2c:6e:c7:f4:28:e4:cd:4a:3d:
                    75:cc:95:c9:14:74:8b:ec:da:5a:a6:16:82:24:8b:
                    76:d8:9e:cf:cf:4b:2d:f1:f8:3a:60:fa:5c:3f:ec:
                    24:3e:ea:13:ee:e2:3e:e3:a7:1e:09:10:57:d4:ea:
                    f4:c1:d9:02:a7:9b:7f:b5:99:d5:e6:47:53:49:6e:
                    2c:7e:8c:78:ad:d4:0d:86:cc:6b:66:eb:d7:70:76:
                    94:c8:22:c5:6e:5e:52:e8:c9:f7:74:d1:53:ad:89:
                    cb:99:b6:5d:ac:6e:48:af:db:d7:2b:9f:dd:77:27:
                    7d:1d:43:7d:ff:c9:63:a9:a5:8b:00:f7:da:44:da:
                    8c:d3:c7:68:d7:be:2e:7a:fd:e7:c7:11:f8:ba:e2:
                    48:59:f2:61:dd:66:5c:9c:44:de:8d:52:5f:31:ef:
                    ba:67:84:8e:f4:e8:19:35:a9:21:5c:f0:67:b4:73:
                    54:27:f7:c1:52:03:13:2d:8e:35:fe:60:a7:99:a7:
                    74:de:bc:76:82:85:cc:3f:41:79:f6:06:eb:37:07:
                    a8:28:49:40:c8:41:05:bb:4a:b2:d0:4a:21:86:24:
                    f5:1f:5f:82:83:2f:84:7d:d8:07:a3:69:8f:c7:ad:
                    2b:5a:85:bd:39:24:d5:f3:0e:6c:6e:d3:e5:6f:a2:
                    f9:11
                Exponent: 65537 (0x10001)
        Attributes:
            (none)
            Requested Extensions:
    Signature Algorithm: sha256WithRSAEncryption
    Signature Value:
        4e:a6:63:81:53:5b:cd:76:fb:58:12:28:8a:da:b2:00:e3:25:
        66:5e:57:99:2e:97:58:d1:4a:8a:b2:27:91:91:3f:e5:99:74:
        8f:6f:4c:d9:0a:0e:4b:c8:fe:f3:6a:90:f2:07:7b:a6:4e:40:
        bb:47:00:e4:12:78:82:9f:22:48:58:a4:87:e0:2a:ed:fb:44:
        5f:c9:59:c2:f0:05:89:ab:7f:c1:04:90:d9:07:61:68:f8:06:
        07:8b:e2:cc:a6:90:27:a7:8b:89:2e:c4:2d:96:0f:4d:c6:ed:
        02:3e:33:b4:6d:d2:c4:eb:7f:b3:b8:c5:3a:fd:05:3a:7f:6a:
        bf:c6:97:cf:46:ed:d3:89:7c:5c:44:85:ca:8f:48:69:89:a6:
        41:a5:6d:a6:f2:56:cb:6f:a9:7b:2f:7d:e2:3b:d5:4f:c2:1a:
        8a:6c:ba:41:d0:a6:4f:4e:e8:95:67:08:3f:3c:46:f1:bf:35:
        30:d6:1b:f6:e3:4f:91:6b:09:39:0d:61:08:28:63:5d:8b:c8:
        cb:fa:33:13:59:5d:5d:00:57:46:e6:94:a4:88:4b:7c:fc:8f:
        31:8e:29:61:61:0f:e2:66:c6:68:c7:19:cd:64:e1:fb:ae:9d:
        bb:43:06:f8:6f:5e:7a:5e:d8:a7:b9:1b:e3:eb:de:6c:00:ca:
        61:43:d3:2e
-----BEGIN CERTIFICATE REQUEST-----
MIICWTCCAUECAQAwFDESMBAGA1UEAwwJbG9jYWxob3N0MIIBIjANBgkqhkiG9w0B
AQEFAAOCAQ8AMIIBCgKCAQEA08KuRJYsbsf0KOTNSj11zJXJFHSL7NpaphaCJIt2
2J7Pz0st8fg6YPpcP+wkPuoT7uI+46ceCRBX1Or0wdkCp5t/tZnV5kdTSW4sfox4
rdQNhsxrZuvXcHaUyCLFbl5S6Mn3dNFTrYnLmbZdrG5Ir9vXK5/ddyd9HUN9/8lj
qaWLAPfaRNqM08do174uev3nxxH4uuJIWfJh3WZcnETejVJfMe+6Z4SO9OgZNakh
XPBntHNUJ/fBUgMTLY41/mCnmad03rx2goXMP0F59gbrNweoKElAyEEFu0qy0Eoh
hiT1H1+Cgy+EfdgHo2mPx60rWoW9OSTV8w5sbtPlb6L5EQIDAQABoAAwDQYJKoZI
hvcNAQELBQADggEBAE6mY4FTW812+1gSKIrasgDjJWZeV5kul1jRSoqyJ5GRP+WZ
dI9vTNkKDkvI/vNqkPIHe6ZOQLtHAOQSeIKfIkhYpIfgKu37RF/JWcLwBYmrf8EE
kNkHYWj4BgeL4symkCeni4kuxC2WD03G7QI+M7Rt0sTrf7O4xTr9BTp/ar/Gl89G
7dOJfFxEhcqPSGmJpkGlbabyVstvqXsvfeI71U/CGopsukHQpk9O6JVnCD88RvG/
NTDWG/bjT5FrCTkNYQgoY12LyMv6MxNZXV0AV0bmlKSIS3z8jzGOKWFhD+JmxmjH
Gc1k4fuunbtDBvhvXnpe2Ke5G+Pr3mwAymFD0y4=
-----END CERTIFICATE REQUEST-----
