Certificate:
    Data:
        Version: 1 (0x0)
        Serial Number:
            6f:d5:b1:96:20:9f:2a:e3:5c:6b:26:50:55:12:58:aa:ff:be:25:33
        Signature Algorithm: sha256WithRSAEncryption
        Issuer: CN = localhost
        Validity
            Not Before: May 19 15:37:17 2023 GMT
            Not After : May 18 15:37:17 2024 GMT
        Subject: CN = localhost
        Subject Public Key Info:
            Public Key Algorithm: rsaEncryption
                Public-Key: (2048 bit)
                Modulus:
                    00:d3:c2:ae:44:96:2c:6e:c7:f4:28:e4:cd:4a:3d:
                    75:cc:95:c9:14:74:8b:ec:da:5a:a6:16:82:24:8b:
                    76:d8:9e:cf:cf:4b:2d:f1:f8:3a:60:fa:5c:3f:ec:
                    24:3e:ea:13:ee:e2:3e:e3:a7:1e:09:10:57:d4:ea:
                    f4:c1:d9:02:a7:9b:7f:b5:99:d5:e6:47:53:49:6e:
                    2c:7e:8c:78:ad:d4:0d:86:cc:6b:66:eb:d7:70:76:
                    94:c8:22:c5:6e:5e:52:e8:c9:f7:74:d1:53:ad:89:
                    cb:99:b6:5d:ac:6e:48:af:db:d7:2b:9f:dd:77:27:
                    7d:1d:43:7d:ff:c9:63:a9:a5:8b:00:f7:da:44:da:
                    8c:d3:c7:68:d7:be:2e:7a:fd:e7:c7:11:f8:ba:e2:
                    48:59:f2:61:dd:66:5c:9c:44:de:8d:52:5f:31:ef:
                    ba:67:84:8e:f4:e8:19:35:a9:21:5c:f0:67:b4:73:
                    54:27:f7:c1:52:03:13:2d:8e:35:fe:60:a7:99:a7:
                    74:de:bc:76:82:85:cc:3f:41:79:f6:06:eb:37:07:
                    a8:28:49:40:c8:41:05:bb:4a:b2:d0:4a:21:86:24:
                    f5:1f:5f:82:83:2f:84:7d:d8:07:a3:69:8f:c7:ad:
                    2b:5a:85:bd:39:24:d5:f3:0e:6c:6e:d3:e5:6f:a2:
                    f9:11
                Exponent: 65537 (0x10001)
    Signature Algorithm: sha256WithRSAEncryption
    Signature Value:
        96:c2:70:6c:87:2c:79:16:33:f4:d3:c2:fb:fe:8b:f0:52:3d:
        26:43:55:08:aa:15:f8:68:5d:72:3d:e9:1e:e7:ee:11:ee:74:
        91:9f:96:e0:e1:d1:f4:bb:7d:a6:7f:38:a3:1a:38:bc:70:1d:
        bd:4f:96:ed:1c:a1:2a:5b:01:e6:c1:95:89:0e:1a:b3:88:03:
        77:d1:e7:e0:4e:de:ea:d4:63:fd:c8:24:95:86:b5:98:4a:a1:
        2e:20:d9:d4:3b:6a:32:55:c7:88:9f:82:14:f4:0b:26:81:17:
        cd:d1:13:4f:78:29:e0:85:25:25:38:1c:93:cb:3c:e8:c0:87:
        4e:86:3e:4b:cc:a6:d8:83:a0:5c:c4:1a:4c:7f:5b:59:a5:0e:
        f7:00:64:68:ea:9d:a5:5f:b0:a5:10:4a:03:02:10:65:82:27:
        32:84:7a:25:28:7c:41:a8:55:45:72:98:b3:45:68:80:ed:1c:
        71:7a:a1:bd:4c:a6:e4:f6:36:0f:27:eb:91:5e:95:51:af:6b:
        9d:47:0b:04:b8:98:85:88:b0:89:b0:17:42:b3:f6:78:77:d0:
        7f:7f:45:c9:b9:28:dc:32:53:60:4b:b6:75:b1:a8:9c:da:4c:
        11:12:d9:fe:c8:4a:0f:2b:83:46:77:94:bc:65:1f:c3:d2:9d:
        57:f2:9c:89
-----BEGIN CERTIFICATE-----
MIICrzCCAZcCFG/VsZYgnyrjXGsmUFUSWKr/viUzMA0GCSqGSIb3DQEBCwUAMBQx
EjAQBgNVBAMMCWxvY2FsaG9zdDAeFw0yMzA1MTkxNTM3MTdaFw0yNDA1MTgxNTM3
MTdaMBQxEjAQBgNVBAMMCWxvY2FsaG9zdDCCASIwDQYJKoZIhvcNAQEBBQADggEP
ADCCAQoCggEBANPCrkSWLG7H9CjkzUo9dcyVyRR0i+zaWqYWgiSLdtiez89LLfH4
OmD6XD/sJD7qE+7iPuOnHgkQV9Tq9MHZAqebf7WZ1eZHU0luLH6MeK3UDYbMa2br
13B2lMgixW5eUujJ93TRU62Jy5m2XaxuSK/b1yuf3XcnfR1Dff/JY6mliwD32kTa
jNPHaNe+Lnr958cR+LriSFnyYd1mXJxE3o1SXzHvumeEjvToGTWpIVzwZ7RzVCf3
wVIDEy2ONf5gp5mndN68doKFzD9BefYG6zcHqChJQMhBBbtKstBKIYYk9R9fgoMv
hH3YB6Npj8etK1qFvTkk1fMObG7T5W+i+RECAwEAATANBgkqhkiG9w0BAQsFAAOC
AQEAlsJwbIcseRYz9NPC+/6L8FI9JkNVCKoV+Ghdcj3pHufuEe50kZ+W4OHR9Lt9
pn84oxo4vHAdvU+W7RyhKlsB5sGViQ4as4gDd9Hn4E7e6tRj/cgklYa1mEqhLiDZ
1DtqMlXHiJ+CFPQLJoEXzdETT3gp4IUlJTgck8s86MCHToY+S8ym2IOgXMQaTH9b
WaUO9wBkaOqdpV+wpRBKAwIQZYInMoR6JSh8QahVRXKYs0VogO0ccXqhvUym5PY2
DyfrkV6VUa9rnUcLBLiYhYiwibAXQrP2eHfQf39Fybko3DJTYEu2dbGonNpMERLZ
/shKDyuDRneUvGUfw9KdV/KciQ==
-----END CERTIFICATE-----
