Certificate:
    Data:
        Version: 3 (0x2)
        Serial Number:
            20:40:38:87:9d:5a:7c:c0:1f:13:1c:50:f1:4e:13:86:a9:12:5d:90
        Signature Algorithm: sha256WithRSAEncryption
        Issuer: CN = localhost
        Validity
            Not Before: May 19 15:36:33 2023 GMT
            Not After : May 16 15:36:33 2033 GMT
        Subject: CN = localhost
        Subject Public Key Info:
            Public Key Algorithm: rsaEncryption
                Public-Key: (2048 bit)
                Modulus:
                    00:aa:b3:cb:a7:a8:9d:cd:d3:c4:00:b7:47:09:2c:
                    7c:89:44:31:4c:ba:59:bd:dc:af:88:c7:83:12:6a:
                    62:bc:41:7f:73:43:a1:64:f0:9f:aa:07:75:03:1f:
                    68:06:fb:86:af:1a:44:66:54:11:e3:90:b7:47:80:
                    16:75:11:1f:ef:1b:63:eb:5e:a3:f0:e0:6c:6e:c3:
                    ab:ae:1f:7b:9b:94:2d:c1:fd:9c:5c:32:82:42:fd:
                    59:bc:9b:0f:68:21:d4:20:5e:e4:de:c5:fc:b3:56:
                    b6:b3:89:d4:9a:8a:82:a9:19:74:4d:9f:77:f3:36:
                    90:3f:c0:a3:e5:79:b1:fb:4e:7a:5e:b5:95:8f:d5:
                    c3:0c:98:97:ba:07:f9:5b:44:5e:8d:1c:2b:43:64:
                    be:4b:fa:93:79:d7:ba:64:bb:0f:87:4a:0e:d2:fa:
                    ec:e2:7b:3a:44:cc:7f:85:6a:a3:85:c9:23:26:db:
                    db:f1:de:8b:a8:56:e8:e8:77:ce:4a:cc:f0:7a:e5:
                    c7:c7:9d:6a:f7:f7:2b:fb:e2:4f:20:7f:84:97:61:
                    60:e8:6c:5c:ca:25:f0:5a:cb:33:fe:03:08:45:2c:
                    2f:a9:f7:d9:71:d5:dd:40:ac:2f:0a:d5:9e:b2:a3:
                    c3:57:87:98:04:65:b4:cc:b3:bf:09:26:59:d9:76:
                    ca:b1
                Exponent: 65537 (0x10001)
        X509v3 extensions:
            X509v3 Subject Key Identifier: 
                21:28:30:84:B7:7C:15:43:BB:6C:F5:42:AB:C8:AD:FA:22:C8:A3:34
            X509v3 Authority Key Identifier: 
                21:28:30:84:B7:7C:15:43:BB:6C:F5:42:AB:C8:AD:FA:22:C8:A3:34
            X509v3 Basic Constraints: critical
                CA:TRUE
    Signature Algorithm: sha256WithRSAEncryption
    Signature Value:
        7b:ca:59:ae:2d:a5:75:2a:a5:29:d7:72:42:eb:5a:5d:4c:c4:
        85:19:95:c0:3e:5f:f2:9e:4f:f7:7a:72:97:21:b7:46:37:d3:
        cb:be:56:9a:ff:7d:e9:4c:d6:d2:d8:2c:8c:34:ca:16:b2:55:
        7b:ab:54:af:1c:88:0d:cc:13:44:7a:35:15:ac:b9:8b:f3:9b:
        9c:ae:bd:9b:bd:c6:89:0d:8c:e7:fd:7f:e6:c6:20:85:68:4f:
        e8:bd:a8:ba:80:21:ea:d6:81:51:af:c1:e4:7f:d5:c0:ff:e8:
        1f:82:e7:64:0e:bb:55:64:cc:a3:3e:88:a7:19:86:e2:42:36:
        d3:c7:45:48:33:33:51:e7:9c:97:3b:cf:ed:d8:79:5b:88:e9:
        64:08:39:6c:ca:32:1f:b3:0a:89:ad:e1:77:6d:16:90:e9:f8:
        9a:ef:5f:d1:22:92:27:ee:08:a9:03:c8:3a:65:45:b4:1b:6b:
        5b:6b:ee:36:a7:28:1a:69:d5:f5:8b:8d:ca:13:b9:be:b3:17:
        d7:f0:38:b7:b4:13:87:8f:d4:06:1f:06:73:bc:59:ac:3b:d5:
        5d:3b:b3:48:ad:5b:d0:0e:bc:f9:ea:6a:60:67:68:58:bd:03:
        5d:29:75:95:ad:f2:57:df:ba:20:32:77:b5:7c:79:18:9c:82:
        d0:75:f4:8c
-----BEGIN CERTIFICATE-----
MIIDCTCCAfGgAwIBAgIUIEA4h51afMAfExxQ8U4ThqkSXZAwDQYJKoZIhvcNAQEL
BQAwFDESMBAGA1UEAwwJbG9jYWxob3N0MB4XDTIzMDUxOTE1MzYzM1oXDTMzMDUx
NjE1MzYzM1owFDESMBAGA1UEAwwJbG9jYWxob3N0MIIBIjANBgkqhkiG9w0BAQEF
AAOCAQ8AMIIBCgKCAQEAqrPLp6idzdPEALdHCSx8iUQxTLpZvdyviMeDEmpivEF/
c0OhZPCfqgd1Ax9oBvuGrxpEZlQR45C3R4AWdREf7xtj616j8OBsbsOrrh97m5Qt
wf2cXDKCQv1ZvJsPaCHUIF7k3sX8s1a2s4nUmoqCqRl0TZ938zaQP8Cj5Xmx+056
XrWVj9XDDJiXugf5W0RejRwrQ2S+S/qTede6ZLsPh0oO0vrs4ns6RMx/hWqjhckj
Jtvb8d6LqFbo6HfOSszweuXHx51q9/cr++JPIH+El2Fg6GxcyiXwWssz/gMIRSwv
qffZcdXdQKwvCtWesqPDV4eYBGW0zLO/CSZZ2XbKsQIDAQABo1MwUTAdBgNVHQ4E
FgQUISgwhLd8FUO7bPVCq8it+iLIozQwHwYDVR0jBBgwFoAUISgwhLd8FUO7bPVC
q8it+iLIozQwDwYDVR0TAQH/BAUwAwEB/zANBgkqhkiG9w0BAQsFAAOCAQEAe8pZ
ri2ldSqlKddyQutaXUzEhRmVwD5f8p5P93pylyG3RjfTy75Wmv996UzW0tgsjDTK
FrJVe6tUrxyIDcwTRHo1Fay5i/ObnK69m73GiQ2M5/1/5sYghWhP6L2ouoAh6taB
Ua/B5H/VwP/oH4LnZA67VWTMoz6IpxmG4kI208dFSDMzUeeclzvP7dh5W4jpZAg5
bMoyH7MKia3hd20WkOn4mu9f0SKSJ+4IqQPIOmVFtBtrW2vuNqcoGmnV9YuNyhO5
vrMX1/A4t7QTh4/UBh8Gc7xZrDvVXTuzSK1b0A68+epqYGdoWL0DXSl1la3yV9+6
IDJ3tXx5GJyC0HX0jA==
-----END CERTIFICATE-----
