Certificate Request:
    Data:
        Version: 1 (0x0)
        Subject: CN = localhost
        Subject Public Key Info:
            Public Key Algorithm: rsaEncryption
                Public-Key: (2048 bit)
                Modulus:
                    00:aa:b3:cb:a7:a8:9d:cd:d3:c4:00:b7:47:09:2c:
                    7c:89:44:31:4c:ba:59:bd:dc:af:88:c7:83:12:6a:
                    62:bc:41:7f:73:43:a1:64:f0:9f:aa:07:75:03:1f:
                    68:06:fb:86:af:1a:44:66:54:11:e3:90:b7:47:80:
                    16:75:11:1f:ef:1b:63:eb:5e:a3:f0:e0:6c:6e:c3:
                    ab:ae:1f:7b:9b:94:2d:c1:fd:9c:5c:32:82:42:fd:
                    59:bc:9b:0f:68:21:d4:20:5e:e4:de:c5:fc:b3:56:
                    b6:b3:89:d4:9a:8a:82:a9:19:74:4d:9f:77:f3:36:
                    90:3f:c0:a3:e5:79:b1:fb:4e:7a:5e:b5:95:8f:d5:
                    c3:0c:98:97:ba:07:f9:5b:44:5e:8d:1c:2b:43:64:
                    be:4b:fa:93:79:d7:ba:64:bb:0f:87:4a:0e:d2:fa:
                    ec:e2:7b:3a:44:cc:7f:85:6a:a3:85:c9:23:26:db:
                    db:f1:de:8b:a8:56:e8:e8:77:ce:4a:cc:f0:7a:e5:
                    c7:c7:9d:6a:f7:f7:2b:fb:e2:4f:20:7f:84:97:61:
                    60:e8:6c:5c:ca:25:f0:5a:cb:33:fe:03:08:45:2c:
                    2f:a9:f7:d9:71:d5:dd:40:ac:2f:0a:d5:9e:b2:a3:
                    c3:57:87:98:04:65:b4:cc:b3:bf:09:26:59:d9:76:
                    ca:b1
                Exponent: 65537 (0x10001)
        Attributes:
            (none)
            Requested Extensions:
    Signature Algorithm: sha256WithRSAEncryption
    Signature Value:
        65:20:30:c6:bb:ef:2a:c1:54:6e:96:81:7a:a0:00:f4:33:a8:
        25:b9:de:45:55:1a:6c:59:41:84:16:df:65:80:fe:5a:4b:4a:
        50:a3:52:b8:22:71:ee:83:7d:d8:1d:9e:85:16:c5:b1:18:fe:
        d4:fb:4e:3a:36:28:ed:be:47:86:de:c2:b7:0d:70:c9:f4:99:
        b6:b1:80:29:6a:a8:77:4d:90:ae:00:7f:48:40:d7:2a:05:1d:
        32:be:96:5a:dc:d0:7d:46:95:38:36:63:4f:f2:ec:b1:5e:ab:
        1b:7d:b7:eb:08:0c:58:02:28:3b:6b:fe:70:40:19:85:fb:4e:
        9b:0c:3b:1a:6e:59:95:48:b3:82:dd:29:10:3b:32:89:19:ed:
        ce:ad:e2:31:31:9a:8e:9d:45:9a:c8:12:60:f5:3c:40:94:e4:
        b9:f9:8d:bb:49:5d:19:4e:6d:da:4f:42:67:69:f9:7d:0c:0e:
        0e:7a:d1:2d:40:4b:f8:58:e8:bf:bc:b8:f5:80:e4:9e:18:9a:
        75:cb:fe:d8:7c:3e:4b:70:83:99:e3:99:38:ac:7b:97:8d:5c:
        62:e0:d5:e4:48:d9:65:0e:09:b1:97:65:51:d6:eb:d7:10:b8:
        01:2b:bc:a0:42:eb:2e:e2:0d:09:ba:4b:df:1c:09:fd:68:05:
        2f:50:78:3d
-----BEGIN CERTIFICATE REQUEST-----
MIICWTCCAUECAQAwFDESMBAGA1UEAwwJbG9jYWxob3N0MIIBIjANBgkqhkiG9w0B
AQEFAAOCAQ8AMIIBCgKCAQEAqrPLp6idzdPEALdHCSx8iUQxTLpZvdyviMeDEmpi
vEF/c0OhZPCfqgd1Ax9oBvuGrxpEZlQR45C3R4AWdREf7xtj616j8OBsbsOrrh97
m5Qtwf2cXDKCQv1ZvJsPaCHUIF7k3sX8s1a2s4nUmoqCqRl0TZ938zaQP8Cj5Xmx
+056XrWVj9XDDJiXugf5W0RejRwrQ2S+S/qTede6ZLsPh0oO0vrs4ns6RMx/hWqj
hckjJtvb8d6LqFbo6HfOSszweuXHx51q9/cr++JPIH+El2Fg6GxcyiXwWssz/gMI
RSwvqffZcdXdQKwvCtWesqPDV4eYBGW0zLO/CSZZ2XbKsQIDAQABoAAwDQYJKoZI
hvcNAQELBQADggEBAGUgMMa77yrBVG6WgXqgAPQzqCW53kVVGmxZQYQW32WA/lpL
SlCjUrgice6DfdgdnoUWxbEY/tT7Tjo2KO2+R4bewrcNcMn0mbaxgClqqHdNkK4A
f0hA1yoFHTK+llrc0H1GlTg2Y0/y7LFeqxt9t+sIDFgCKDtr/nBAGYX7TpsMOxpu
WZVIs4LdKRA7MokZ7c6t4jExmo6dRZrIEmD1PECU5Ln5jbtJXRlObdpPQmdp+X0M
Dg560S1AS/hY6L+8uPWA5J4YmnXL/th8Pktwg5njmTise5eNXGLg1eRI2WUOCbGX
ZVHW69cQuAErvKBC6y7iDQm6S98cCf1oBS9QeD0=
-----END CERTIFICATE REQUEST-----
